target datalayout = "e-m:e-p270:32:32-p271:32:32-p272:64:64-i64:64-i128:128-f80:128-n8:16:32:64-S128"
target triple = "x86_64-pc-linux-gnu"

%struct.AbiType = type { %union.anon.1 }
%union.anon.1 = type { ptr }
%struct.Type_ = type { i32, ptr, ptr, ptr, %union.anon.85, ptr, ptr, %union.anon.87 }
%union.anon.85 = type { ptr }
%union.anon.87 = type { %struct.TypeFunction }
%struct.TypeFunction = type { ptr, ptr, ptr }

; Function Attrs: nounwind uwtable
define internal zeroext i1 @abi_type_is_type(ptr %0) #0 {
  %2 = alloca %struct.AbiType, align 8
  %3 = getelementptr inbounds %struct.AbiType, ptr %2, i32 0, i32 0
  %4 = getelementptr inbounds %union.anon.1, ptr %3, i32 0, i32 0
  store ptr %0, ptr %4, align 8
  %5 = getelementptr inbounds %struct.AbiType, ptr %2, i32 0, i32 0
  %6 = load i64, ptr %5, align 8
  %7 = and i64 %6, 1
  %8 = icmp ne i64 %7, 0
  %9 = xor i1 %8, true
  ret i1 %9
}

; Function Attrs: nounwind uwtable
define dso_local zeroext i1 @abi_type_is_float(ptr %0) #0 {
  %2 = alloca ptr, align 8
  %3 = alloca i32, align 4
  %4 = alloca %struct.AbiType, align 8
  %5 = getelementptr inbounds %struct.AbiType, ptr %4, i32 0, i32 0
  %6 = getelementptr inbounds %union.anon.1, ptr %5, i32 0, i32 0
  store ptr %0, ptr %6, align 8
  %7 = getelementptr inbounds %struct.AbiType, ptr %4, i32 0, i32 0
  %8 = getelementptr inbounds %union.anon.1, ptr %7, i32 0, i32 0
  %9 = load ptr, ptr %8, align 8
  %10 = call zeroext i1 @abi_type_is_type(ptr %9)
  br i1 %10, label %11, label %31

11:                                               ; preds = %1
  %12 = getelementptr inbounds %struct.AbiType, ptr %4, i32 0, i32 0
  %13 = load ptr, ptr %12, align 8
  store ptr %13, ptr %2, align 8
  %14 = load ptr, ptr %2, align 8
  %15 = load i32, ptr %14, align 8
  store i32 %15, ptr %3, align 4
  %16 = load i32, ptr %3, align 4
  %17 = icmp eq i32 %16, 31
  br i1 %17, label %18, label %23

18:                                               ; preds = %11
  %19 = load ptr, ptr %2, align 8
  %20 = getelementptr inbounds %struct.Type_, ptr %19, i32 0, i32 1
  %21 = load ptr, ptr %20, align 8
  %22 = load i32, ptr %21, align 8
  store i32 %22, ptr %3, align 4
  br label %23

23:                                               ; preds = %18, %11
  %24 = load i32, ptr %3, align 4
  %25 = icmp uge i32 %24, 13
  br i1 %25, label %26, label %29

26:                                               ; preds = %23
  %27 = load i32, ptr %3, align 4
  %28 = icmp ule i32 %27, 17
  br label %29

29:                                               ; preds = %26, %23
  %30 = phi i1 [ false, %23 ], [ %28, %26 ]
  br label %31

31:                                               ; preds = %29, %1
  %32 = phi i1 [ false, %1 ], [ %30, %29 ]
  ret i1 %32
}