; Function Attrs: mustprogress nofree norecurse nosync nounwind willreturn memory(read, inaccessiblemem: none) uwtable
define dso_local zeroext i1 @abi_type_is_float(ptr %0) local_unnamed_addr #1 {
  %2 = ptrtoint ptr %0 to i64
  %3 = and i64 %2, 1
  %.not.i = icmp eq i64 %3, 0
  br i1 %.not.i, label %4, label %14

4:                                                ; preds = %1
  %5 = load i32, ptr %0, align 8
  %6 = icmp eq i32 %5, 31
  br i1 %6, label %7, label %11

7:                                                ; preds = %4
  %8 = getelementptr inbounds i8, ptr %0, i64 8
  %9 = load ptr, ptr %8, align 8
  %10 = load i32, ptr %9, align 8
  br label %11

11:                                               ; preds = %7, %4
  %.0 = phi i32 [ %10, %7 ], [ %5, %4 ]
  %12 = add i32 %.0, -13
  %13 = icmp ult i32 %12, 5
  br label %14

14:                                               ; preds = %11, %1
  %15 = phi i1 [ false, %1 ], [ %13, %11 ]
  ret i1 %15
}